target datalayout = "e-m:e-p270:32:32-p271:32:32-p272:64:64-i64:64-i128:128-f80:128-n8:16:32:64-S128"
target triple = "x86_64-pc-linux-gnu"

%struct.DecodedFrames = type { ptr, i64, i64 }
%struct.AVCodecContext = type { ptr, i32, i32, ptr, i32, i32, ptr, ptr, ptr, i64, i32, i32, ptr, i32, %struct.AVRational, %struct.AVRational, %struct.AVRational, i32, i32, i32, i32, i32, %struct.AVRational, i32, i32, i32, i32, i32, i32, i32, i32, i32, i32, i32, ptr, ptr, i32, float, float, float, float, float, float, float, float, float, i32, i32, i32, i32, i32, i32, i32, i32, i32, i32, i32, i32, ptr, ptr, ptr, i32, i32, i32, i32, i32, i32, i32, i32, i32, i32, %struct.AVChannelLayout, i32, i32, i32, i32, i32, i32, i32, i32, ptr, i32, i32, i32, float, float, i32, i32, i32, i32, i32, ptr, i64, i64, float, float, i32, i32, ptr, ptr, i32, i32, i32, i32, i32, ptr, ptr, ptr, ptr, i32, i32, [8 x i64], i32, i32, i32, i32, i32, i32, i32, ptr, ptr, i32, i32, i32, i32, i32, i32, i32, i32, i32, i32, ptr, ptr, i32, i32, ptr, ptr, ptr, ptr, i32, i32, i64, i32, i32, i64, ptr, i64, ptr, i32, ptr, i32 }
%struct.AVRational = type { i32, i32 }
%struct.AVChannelLayout = type { i32, i32, %union.anon, ptr }
%union.anon = type { i64 }
%struct.AVCodecInternal = type { i32, i32, i32, ptr, ptr, ptr, ptr, ptr, ptr, ptr, i32, ptr, ptr, ptr, i32, i32, ptr, i32, ptr, ptr, i32, i32 }
%struct.FrameThreadContext = type { ptr, ptr, i32, %union.pthread_mutex_t, %union.pthread_mutex_t, %union.pthread_mutex_t, %union.pthread_cond_t, i32, %struct.DecodedFrames, i32, ptr, i32, i32, ptr, ptr, ptr }
%union.pthread_mutex_t = type { %struct.__pthread_mutex_s }
%struct.__pthread_mutex_s = type { i32, i32, i32, i32, i32, i16, i16, %struct.__pthread_internal_list }
%struct.__pthread_internal_list = type { ptr, ptr }
%union.pthread_cond_t = type { %struct.__pthread_cond_s }
%struct.__pthread_cond_s = type { %union.__atomic_wide_counter, %union.__atomic_wide_counter, [2 x i32], [2 x i32], i32, i32, [2 x i32] }
%union.__atomic_wide_counter = type { i64 }
%struct.PerThreadContext = type { ptr, i64, i32, i32, %union.pthread_cond_t, %union.pthread_cond_t, %union.pthread_cond_t, %union.pthread_mutex_t, %union.pthread_mutex_t, ptr, ptr, %struct.DecodedFrames, i32, i32, i32, i32, i32, i32, i32, i32, i32 }
%struct.FFHWAccel = type { %struct.AVHWAccel, ptr, ptr, ptr, ptr, ptr, i32, i32, i32, ptr, ptr, ptr, ptr, ptr, ptr }
%struct.AVHWAccel = type { ptr, i32, i32, i32, i32 }

@.str.2 = private unnamed_addr constant [30 x i8] c"Assertion %s failed at %s:%d\0A\00", align 1
@.str.3 = private unnamed_addr constant [26 x i8] c"!p->parent->stash_hwaccel\00", align 1
@.str.4 = private unnamed_addr constant [27 x i8] c"libavcodec/pthread_frame.c\00", align 1
@.str.5 = private unnamed_addr constant [41 x i8] c"Multiple ff_thread_finish_setup() calls\0A\00", align 1

; Function Attrs: nounwind uwtable
define internal void @async_lock(ptr noundef %0) #0 {
  %2 = alloca ptr, align 8
  store ptr %0, ptr %2, align 8, !tbaa !37
  %3 = load ptr, ptr %2, align 8, !tbaa !37
  %4 = getelementptr inbounds nuw %struct.FrameThreadContext, ptr %3, i32 0, i32 5
  %5 = call i32 @pthread_mutex_lock(ptr noundef %4) #9
  br label %6

6:                                                ; preds = %11, %1
  %7 = load ptr, ptr %2, align 8, !tbaa !37
  %8 = getelementptr inbounds nuw %struct.FrameThreadContext, ptr %7, i32 0, i32 7
  %9 = load i32, ptr %8, align 8, !tbaa !63
  %10 = icmp ne i32 %9, 0
  br i1 %10, label %11, label %17

11:                                               ; preds = %6
  %12 = load ptr, ptr %2, align 8, !tbaa !37
  %13 = getelementptr inbounds nuw %struct.FrameThreadContext, ptr %12, i32 0, i32 6
  %14 = load ptr, ptr %2, align 8, !tbaa !37
  %15 = getelementptr inbounds nuw %struct.FrameThreadContext, ptr %14, i32 0, i32 5
  %16 = call i32 @pthread_cond_wait(ptr noundef %13, ptr noundef %15)
  br label %6, !llvm.loop !133

17:                                               ; preds = %6
  %18 = load ptr, ptr %2, align 8, !tbaa !37
  %19 = getelementptr inbounds nuw %struct.FrameThreadContext, ptr %18, i32 0, i32 7
  store i32 1, ptr %19, align 8, !tbaa !63
  %20 = load ptr, ptr %2, align 8, !tbaa !37
  %21 = getelementptr inbounds nuw %struct.FrameThreadContext, ptr %20, i32 0, i32 5
  %22 = call i32 @pthread_mutex_unlock(ptr noundef %21) #9
  ret void
}

; Function Attrs: nounwind uwtable
define internal i32 @hwaccel_serial(ptr noundef %0) #0 {
  %2 = alloca ptr, align 8
  store ptr %0, ptr %2, align 8, !tbaa !4
  %3 = load ptr, ptr %2, align 8, !tbaa !4
  %4 = getelementptr inbounds nuw %struct.AVCodecContext, ptr %3, i32 0, i32 105
  %5 = load ptr, ptr %4, align 8, !tbaa !80
  %6 = icmp ne ptr %5, null
  br i1 %6, label %7, label %17

7:                                                ; preds = %1
  %8 = load ptr, ptr %2, align 8, !tbaa !4
  %9 = getelementptr inbounds nuw %struct.AVCodecContext, ptr %8, i32 0, i32 105
  %10 = load ptr, ptr %9, align 8, !tbaa !80
  %11 = call ptr @ffhwaccel(ptr noundef %10)
  %12 = getelementptr inbounds nuw %struct.FFHWAccel, ptr %11, i32 0, i32 8
  %13 = load i32, ptr %12, align 8, !tbaa !141
  %14 = and i32 %13, 2
  %15 = icmp ne i32 %14, 0
  %16 = xor i1 %15, true
  br label %17

17:                                               ; preds = %7, %1
  %18 = phi i1 [ false, %1 ], [ %16, %7 ]
  %19 = zext i1 %18 to i32
  ret i32 %19
}

; Function Attrs: inlinehint nounwind uwtable
define internal ptr @ffhwaccel(ptr noundef %0) #5 {
  %2 = alloca ptr, align 8
  store ptr %0, ptr %2, align 8, !tbaa !83
  %3 = load ptr, ptr %2, align 8, !tbaa !83
  ret ptr %3
}

; Function Attrs: nounwind uwtable
define void @ff_thread_finish_setup(ptr noundef %0) #0 {
  %2 = alloca ptr, align 8
  %3 = alloca ptr, align 8
  %4 = alloca i32, align 4
  %5 = alloca i32, align 4
  %6 = alloca i32, align 4
  store ptr %0, ptr %2, align 8, !tbaa !4
  call void @llvm.lifetime.start.p0(i64 8, ptr %3) #9
  %7 = load ptr, ptr %2, align 8, !tbaa !4
  %8 = getelementptr inbounds nuw %struct.AVCodecContext, ptr %7, i32 0, i32 118
  %9 = load i32, ptr %8, align 8, !tbaa !140
  %10 = and i32 %9, 1
  %11 = icmp ne i32 %10, 0
  br i1 %11, label %13, label %12

12:                                               ; preds = %1
  store i32 1, ptr %4, align 4
  br label %133

13:                                               ; preds = %1
  %14 = load ptr, ptr %2, align 8, !tbaa !4
  %15 = getelementptr inbounds nuw %struct.AVCodecContext, ptr %14, i32 0, i32 7
  %16 = load ptr, ptr %15, align 8, !tbaa !11
  %17 = getelementptr inbounds nuw %struct.AVCodecInternal, ptr %16, i32 0, i32 5
  %18 = load ptr, ptr %17, align 8, !tbaa !31
  store ptr %18, ptr %3, align 8, !tbaa !53
  %19 = load ptr, ptr %2, align 8, !tbaa !4
  %20 = getelementptr inbounds nuw %struct.AVCodecContext, ptr %19, i32 0, i32 105
  %21 = load ptr, ptr %20, align 8, !tbaa !80
  %22 = icmp ne ptr %21, null
  br i1 %22, label %23, label %32

23:                                               ; preds = %13
  %24 = load ptr, ptr %2, align 8, !tbaa !4
  %25 = getelementptr inbounds nuw %struct.AVCodecContext, ptr %24, i32 0, i32 105
  %26 = load ptr, ptr %25, align 8, !tbaa !80
  %27 = call ptr @ffhwaccel(ptr noundef %26)
  %28 = getelementptr inbounds nuw %struct.FFHWAccel, ptr %27, i32 0, i32 8
  %29 = load i32, ptr %28, align 8, !tbaa !141
  %30 = and i32 %29, 2
  %31 = icmp ne i32 %30, 0
  br label %32

32:                                               ; preds = %23, %13
  %33 = phi i1 [ false, %13 ], [ %31, %23 ]
  %34 = zext i1 %33 to i32
  %35 = load ptr, ptr %3, align 8, !tbaa !53
  %36 = getelementptr inbounds nuw %struct.PerThreadContext, ptr %35, i32 0, i32 17
  store i32 %34, ptr %36, align 4, !tbaa !81
  %37 = load ptr, ptr %2, align 8, !tbaa !4
  %38 = call i32 @hwaccel_serial(ptr noundef %37)
  %39 = icmp ne i32 %38, 0
  br i1 %39, label %40, label %53

40:                                               ; preds = %32
  %41 = load ptr, ptr %3, align 8, !tbaa !53
  %42 = getelementptr inbounds nuw %struct.PerThreadContext, ptr %41, i32 0, i32 15
  %43 = load i32, ptr %42, align 4, !tbaa !142
  %44 = icmp ne i32 %43, 0
  br i1 %44, label %53, label %45

45:                                               ; preds = %40
  %46 = load ptr, ptr %3, align 8, !tbaa !53
  %47 = getelementptr inbounds nuw %struct.PerThreadContext, ptr %46, i32 0, i32 0
  %48 = load ptr, ptr %47, align 8, !tbaa !65
  %49 = getelementptr inbounds nuw %struct.FrameThreadContext, ptr %48, i32 0, i32 4
  %50 = call i32 @pthread_mutex_lock(ptr noundef %49) #9
  %51 = load ptr, ptr %3, align 8, !tbaa !53
  %52 = getelementptr inbounds nuw %struct.PerThreadContext, ptr %51, i32 0, i32 15
  store i32 1, ptr %52, align 4, !tbaa !142
  br label %53

53:                                               ; preds = %45, %40, %32
  %54 = load ptr, ptr %2, align 8, !tbaa !4
  %55 = getelementptr inbounds nuw %struct.AVCodecContext, ptr %54, i32 0, i32 105
  %56 = load ptr, ptr %55, align 8, !tbaa !80
  %57 = icmp ne ptr %56, null
  br i1 %57, label %58, label %73

58:                                               ; preds = %53
  %59 = load ptr, ptr %2, align 8, !tbaa !4
  %60 = getelementptr inbounds nuw %struct.AVCodecContext, ptr %59, i32 0, i32 105
  %61 = load ptr, ptr %60, align 8, !tbaa !80
  %62 = call ptr @ffhwaccel(ptr noundef %61)
  %63 = getelementptr inbounds nuw %struct.FFHWAccel, ptr %62, i32 0, i32 8
  %64 = load i32, ptr %63, align 8, !tbaa !141
  %65 = and i32 %64, 1
  %66 = icmp ne i32 %65, 0
  br i1 %66, label %73, label %67

67:                                               ; preds = %58
  %68 = load ptr, ptr %3, align 8, !tbaa !53
  %69 = getelementptr inbounds nuw %struct.PerThreadContext, ptr %68, i32 0, i32 16
  store i32 1, ptr %69, align 8, !tbaa !143
  %70 = load ptr, ptr %3, align 8, !tbaa !53
  %71 = getelementptr inbounds nuw %struct.PerThreadContext, ptr %70, i32 0, i32 0
  %72 = load ptr, ptr %71, align 8, !tbaa !65
  call void @async_lock(ptr noundef %72)
  br label %73

73:                                               ; preds = %67, %58, %53
  br label %74

74:                                               ; preds = %73
  %75 = load ptr, ptr %3, align 8, !tbaa !53
  %76 = getelementptr inbounds nuw %struct.PerThreadContext, ptr %75, i32 0, i32 0
  %77 = load ptr, ptr %76, align 8, !tbaa !65
  %78 = getelementptr inbounds nuw %struct.FrameThreadContext, ptr %77, i32 0, i32 13
  %79 = load ptr, ptr %78, align 8, !tbaa !82
  %80 = icmp ne ptr %79, null
  br i1 %80, label %81, label %82

81:                                               ; preds = %74
  call void (ptr, i32, ptr, ...) @av_log(ptr noundef null, i32 noundef 0, ptr noundef @.str.2, ptr noundef @.str.3, ptr noundef @.str.4, i32 noundef 697)
  call void @abort() #10
  unreachable

82:                                               ; preds = %74
  br label %83

83:                                               ; preds = %82
  br label %84

84:                                               ; preds = %83
  %85 = load ptr, ptr %2, align 8, !tbaa !4
  %86 = call i32 @hwaccel_serial(ptr noundef %85)
  %87 = icmp ne i32 %86, 0
  br i1 %87, label %88, label %112

88:                                               ; preds = %84
  %89 = load ptr, ptr %2, align 8, !tbaa !4
  %90 = getelementptr inbounds nuw %struct.AVCodecContext, ptr %89, i32 0, i32 105
  %91 = load ptr, ptr %90, align 8, !tbaa !80
  %92 = load ptr, ptr %3, align 8, !tbaa !53
  %93 = getelementptr inbounds nuw %struct.PerThreadContext, ptr %92, i32 0, i32 0
  %94 = load ptr, ptr %93, align 8, !tbaa !65
  %95 = getelementptr inbounds nuw %struct.FrameThreadContext, ptr %94, i32 0, i32 13
  store ptr %91, ptr %95, align 8, !tbaa !82
  %96 = load ptr, ptr %2, align 8, !tbaa !4
  %97 = getelementptr inbounds nuw %struct.AVCodecContext, ptr %96, i32 0, i32 106
  %98 = load ptr, ptr %97, align 8, !tbaa !86
  %99 = load ptr, ptr %3, align 8, !tbaa !53
  %100 = getelementptr inbounds nuw %struct.PerThreadContext, ptr %99, i32 0, i32 0
  %101 = load ptr, ptr %100, align 8, !tbaa !65
  %102 = getelementptr inbounds nuw %struct.FrameThreadContext, ptr %101, i32 0, i32 14
  store ptr %98, ptr %102, align 8, !tbaa !84
  %103 = load ptr, ptr %2, align 8, !tbaa !4
  %104 = getelementptr inbounds nuw %struct.AVCodecContext, ptr %103, i32 0, i32 7
  %105 = load ptr, ptr %104, align 8, !tbaa !11
  %106 = getelementptr inbounds nuw %struct.AVCodecInternal, ptr %105, i32 0, i32 16
  %107 = load ptr, ptr %106, align 8, !tbaa !88
  %108 = load ptr, ptr %3, align 8, !tbaa !53
  %109 = getelementptr inbounds nuw %struct.PerThreadContext, ptr %108, i32 0, i32 0
  %110 = load ptr, ptr %109, align 8, !tbaa !65
  %111 = getelementptr inbounds nuw %struct.FrameThreadContext, ptr %110, i32 0, i32 15
  store ptr %107, ptr %111, align 8, !tbaa !87
  br label %112

112:                                              ; preds = %88, %84
  %113 = load ptr, ptr %3, align 8, !tbaa !53
  %114 = getelementptr inbounds nuw %struct.PerThreadContext, ptr %113, i32 0, i32 8
  %115 = call i32 @pthread_mutex_lock(ptr noundef %114) #9
  %116 = load ptr, ptr %3, align 8, !tbaa !53
  %117 = getelementptr inbounds nuw %struct.PerThreadContext, ptr %116, i32 0, i32 13
  %118 = load atomic i32, ptr %117 seq_cst, align 4
  store i32 %118, ptr %5, align 4
  %119 = load i32, ptr %5, align 4, !tbaa !39
  %120 = icmp eq i32 %119, 2
  br i1 %120, label %121, label %123

121:                                              ; preds = %112
  %122 = load ptr, ptr %2, align 8, !tbaa !4
  call void (ptr, i32, ptr, ...) @av_log(ptr noundef %122, i32 noundef 24, ptr noundef @.str.5)
  br label %123

123:                                              ; preds = %121, %112
  %124 = load ptr, ptr %3, align 8, !tbaa !53
  %125 = getelementptr inbounds nuw %struct.PerThreadContext, ptr %124, i32 0, i32 13
  store i32 2, ptr %6, align 4, !tbaa !39
  %126 = load i32, ptr %6, align 4
  store atomic i32 %126, ptr %125 seq_cst, align 4
  %127 = load ptr, ptr %3, align 8, !tbaa !53
  %128 = getelementptr inbounds nuw %struct.PerThreadContext, ptr %127, i32 0, i32 5
  %129 = call i32 @pthread_cond_broadcast(ptr noundef %128) #9
  %130 = load ptr, ptr %3, align 8, !tbaa !53
  %131 = getelementptr inbounds nuw %struct.PerThreadContext, ptr %130, i32 0, i32 8
  %132 = call i32 @pthread_mutex_unlock(ptr noundef %131) #9
  store i32 0, ptr %4, align 4
  br label %133

133:                                              ; preds = %123, %12
  call void @llvm.lifetime.end.p0(i64 8, ptr %3) #9
  %134 = load i32, ptr %4, align 4
  switch i32 %134, label %136 [
    i32 0, label %135
    i32 1, label %135
  ]

135:                                              ; preds = %133, %133
  ret void

136:                                              ; preds = %133
  unreachable
}