; Function Attrs: nounwind uwtable
define void @ff_thread_finish_setup(ptr noundef %0) local_unnamed_addr #0 {
  %2 = getelementptr inbounds nuw i8, ptr %0, i64 664
  %3 = load i32, ptr %2, align 8, !tbaa !136
  %4 = and i32 %3, 1
  %.not = icmp eq i32 %4, 0
  br i1 %.not, label %67, label %5

5:                                                ; preds = %1
  %6 = getelementptr inbounds nuw i8, ptr %0, i64 40
  %7 = load ptr, ptr %6, align 8, !tbaa !4
  %8 = getelementptr inbounds nuw i8, ptr %7, i64 32
  %9 = load ptr, ptr %8, align 8, !tbaa !27
  %10 = getelementptr inbounds nuw i8, ptr %0, i64 536
  %11 = load ptr, ptr %10, align 8, !tbaa !76
  %.not29 = icmp eq ptr %11, null
  br i1 %.not29, label %.thread43, label %hwaccel_serial.exit

.thread43:                                        ; preds = %5
  %12 = getelementptr inbounds nuw i8, ptr %9, i64 308
  store i32 0, ptr %12, align 4, !tbaa !77
  br label %40

hwaccel_serial.exit:                              ; preds = %5
  %13 = getelementptr inbounds nuw i8, ptr %11, i64 72
  %14 = load i32, ptr %13, align 8, !tbaa !137
  %15 = lshr i32 %14, 1
  %.lobit = and i32 %15, 1
  %16 = getelementptr inbounds nuw i8, ptr %9, i64 308
  store i32 %.lobit, ptr %16, align 4, !tbaa !77
  %17 = and i32 %14, 2
  %.not30.not = icmp eq i32 %17, 0
  br i1 %.not30.not, label %18, label %.thread

18:                                               ; preds = %hwaccel_serial.exit
  %19 = getelementptr inbounds nuw i8, ptr %9, i64 300
  %20 = load i32, ptr %19, align 4, !tbaa !138
  %.not31 = icmp eq i32 %20, 0
  br i1 %.not31, label %21, label %.thread

21:                                               ; preds = %18
  %22 = load ptr, ptr %9, align 8, !tbaa !44
  %23 = getelementptr inbounds nuw i8, ptr %22, i64 64
  %24 = tail call i32 @pthread_mutex_lock(ptr noundef nonnull %23) #11
  store i32 1, ptr %19, align 4, !tbaa !138
  %.pr.pre = load ptr, ptr %10, align 8, !tbaa !76
  %.not32 = icmp eq ptr %.pr.pre, null
  br i1 %.not32, label %40, label %.thread

.thread:                                          ; preds = %hwaccel_serial.exit, %18, %21
  %.pr48 = phi ptr [ %.pr.pre, %21 ], [ %11, %18 ], [ %11, %hwaccel_serial.exit ]
  %25 = getelementptr inbounds nuw i8, ptr %.pr48, i64 72
  %26 = load i32, ptr %25, align 8, !tbaa !137
  %27 = and i32 %26, 1
  %.not33 = icmp eq i32 %27, 0
  br i1 %.not33, label %28, label %40

28:                                               ; preds = %.thread
  %29 = getelementptr inbounds nuw i8, ptr %9, i64 304
  store i32 1, ptr %29, align 8, !tbaa !139
  %30 = load ptr, ptr %9, align 8, !tbaa !44
  %31 = getelementptr inbounds nuw i8, ptr %30, i64 104
  %32 = tail call i32 @pthread_mutex_lock(ptr noundef nonnull %31) #11
  %33 = getelementptr inbounds nuw i8, ptr %30, i64 192
  %34 = load i32, ptr %33, align 8, !tbaa !34
  %.not6.i = icmp eq i32 %34, 0
  br i1 %.not6.i, label %async_lock.exit, label %.lr.ph.i

.lr.ph.i:                                         ; preds = %28
  %35 = getelementptr inbounds nuw i8, ptr %30, i64 144
  br label %36

36:                                               ; preds = %36, %.lr.ph.i
  %37 = tail call i32 @pthread_cond_wait(ptr noundef nonnull %35, ptr noundef nonnull %31) #11
  %38 = load i32, ptr %33, align 8, !tbaa !34
  %.not.i37 = icmp eq i32 %38, 0
  br i1 %.not.i37, label %async_lock.exit, label %36, !llvm.loop !95

async_lock.exit:                                  ; preds = %36, %28
  store i32 1, ptr %33, align 8, !tbaa !34
  %39 = tail call i32 @pthread_mutex_unlock(ptr noundef nonnull %31) #11
  br label %40

40:                                               ; preds = %.thread43, %21, %.thread, %async_lock.exit
  %41 = load ptr, ptr %9, align 8, !tbaa !44
  %42 = getelementptr inbounds nuw i8, ptr %41, i64 248
  %43 = load ptr, ptr %42, align 8, !tbaa !78
  %.not34 = icmp eq ptr %43, null
  br i1 %.not34, label %45, label %44

44:                                               ; preds = %40
  tail call void (ptr, i32, ptr, ...) @av_log(ptr noundef null, i32 noundef 0, ptr noundef nonnull @.str.2, ptr noundef nonnull @.str.3, ptr noundef nonnull @.str.4, i32 noundef 697) #11
  tail call void @abort() #12
  unreachable

45:                                               ; preds = %40
  %.val36 = load ptr, ptr %10, align 8, !tbaa !76
  %.not.i38 = icmp eq ptr %.val36, null
  br i1 %.not.i38, label %hwaccel_serial.exit40.thread, label %hwaccel_serial.exit40

hwaccel_serial.exit40:                            ; preds = %45
  %46 = getelementptr inbounds nuw i8, ptr %.val36, i64 72
  %47 = load i32, ptr %46, align 8, !tbaa !137
  %48 = and i32 %47, 2
  %.not35.not = icmp eq i32 %48, 0
  br i1 %.not35.not, label %49, label %hwaccel_serial.exit40.thread

49:                                               ; preds = %hwaccel_serial.exit40
  store ptr %.val36, ptr %42, align 8, !tbaa !78
  %50 = getelementptr inbounds nuw i8, ptr %0, i64 544
  %51 = load ptr, ptr %50, align 8, !tbaa !80
  %52 = getelementptr inbounds nuw i8, ptr %41, i64 256
  store ptr %51, ptr %52, align 8, !tbaa !79
  %53 = load ptr, ptr %6, align 8, !tbaa !4
  %54 = getelementptr inbounds nuw i8, ptr %53, i64 112
  %55 = load ptr, ptr %54, align 8, !tbaa !82
  %56 = getelementptr inbounds nuw i8, ptr %41, i64 264
  store ptr %55, ptr %56, align 8, !tbaa !81
  br label %hwaccel_serial.exit40.thread

hwaccel_serial.exit40.thread:                     ; preds = %45, %49, %hwaccel_serial.exit40
  %57 = getelementptr inbounds nuw i8, ptr %9, i64 208
  %58 = tail call i32 @pthread_mutex_lock(ptr noundef nonnull %57) #11
  %59 = getelementptr inbounds nuw i8, ptr %9, i64 292
  %60 = load atomic i32, ptr %59 seq_cst, align 4
  %61 = icmp eq i32 %60, 2
  br i1 %61, label %62, label %63

62:                                               ; preds = %hwaccel_serial.exit40.thread
  tail call void (ptr, i32, ptr, ...) @av_log(ptr noundef nonnull %0, i32 noundef 24, ptr noundef nonnull @.str.5) #11
  br label %63

63:                                               ; preds = %62, %hwaccel_serial.exit40.thread
  store atomic i32 2, ptr %59 seq_cst, align 4
  %64 = getelementptr inbounds nuw i8, ptr %9, i64 72
  %65 = tail call i32 @pthread_cond_broadcast(ptr noundef nonnull %64) #11
  %66 = tail call i32 @pthread_mutex_unlock(ptr noundef nonnull %57) #11
  br label %67

67:                                               ; preds = %1, %63
  ret void
}